target datalayout = "e-m:e-p270:32:32-p271:32:32-p272:64:64-i64:64-i128:128-f80:128-n8:16:32:64-S128"
target triple = "x86_64-pc-linux-gnu"

%class.btConvexTriangleCallback = type { %class.btTriangleCallback, %class.btVector3, %class.btVector3, ptr, ptr, ptr, ptr, ptr, float, i32, ptr }
%class.btTriangleCallback = type { ptr }
%class.btVector3 = type { [4 x float] }
%struct.btCollisionObjectWrapper = type { ptr, ptr, ptr, ptr, ptr, i32, i32 }

@_ZTV24btConvexTriangleCallback = dso_local unnamed_addr constant { [5 x ptr] } { [5 x ptr] [ptr null, ptr @_ZTI24btConvexTriangleCallback, ptr @_ZN24btConvexTriangleCallbackD1Ev, ptr @_ZN24btConvexTriangleCallbackD0Ev, ptr @_ZN24btConvexTriangleCallback15processTriangleEP9btVector3ii] }, align 8
@_ZTV18btTriangleCallback = available_externally unnamed_addr constant { [5 x ptr] } { [5 x ptr] [ptr null, ptr @_ZTI18btTriangleCallback, ptr @_ZN18btTriangleCallbackD1Ev, ptr @_ZN18btTriangleCallbackD0Ev, ptr @__cxa_pure_virtual] }, align 8

; Function Attrs: mustprogress uwtable
define dso_local void @_ZN24btConvexTriangleCallback10clearCacheEv(ptr noundef nonnull align 8 dereferenceable(96) %0) #2 align 2 {
  %2 = alloca ptr, align 8
  store ptr %0, ptr %2, align 8, !tbaa !49
  %3 = load ptr, ptr %2, align 8
  %4 = getelementptr inbounds nuw %class.btConvexTriangleCallback, ptr %3, i32 0, i32 6
  %5 = load ptr, ptr %4, align 8, !tbaa !52
  %6 = getelementptr inbounds nuw %class.btConvexTriangleCallback, ptr %3, i32 0, i32 10
  %7 = load ptr, ptr %6, align 8, !tbaa !56
  %8 = load ptr, ptr %5, align 8, !tbaa !20
  %9 = getelementptr inbounds ptr, ptr %8, i64 5
  %10 = load ptr, ptr %9, align 8
  call void %10(ptr noundef nonnull align 8 dereferenceable(8) %5, ptr noundef %7)
  ret void
}

; Function Attrs: inlinehint mustprogress nounwind uwtable
define linkonce_odr dso_local noundef ptr @_ZNK24btCollisionObjectWrapper18getCollisionObjectEv(ptr noundef nonnull align 8 dereferenceable(48) %0) #5 comdat align 2 {
  %2 = alloca ptr, align 8
  store ptr %0, ptr %2, align 8, !tbaa !16
  %3 = load ptr, ptr %2, align 8
  %4 = getelementptr inbounds nuw %struct.btCollisionObjectWrapper, ptr %3, i32 0, i32 2
  %5 = load ptr, ptr %4, align 8, !tbaa !61
  ret ptr %5
}

; Function Attrs: inlinehint mustprogress nounwind uwtable
define linkonce_odr dso_local void @_ZN9btVector3C2Ev(ptr noundef nonnull align 4 dereferenceable(16) %0) unnamed_addr #5 comdat align 2 {
  %2 = alloca ptr, align 8
  store ptr %0, ptr %2, align 8, !tbaa !59
  ret void
}

; Function Attrs: inlinehint mustprogress nounwind uwtable
define linkonce_odr dso_local void @_ZN18btTriangleCallbackC2Ev(ptr noundef nonnull align 8 dereferenceable(8) %0) unnamed_addr #5 comdat align 2 {
  %2 = alloca ptr, align 8
  store ptr %0, ptr %2, align 8, !tbaa !57
  %3 = load ptr, ptr %2, align 8
  store ptr getelementptr inbounds inrange(-16, 24) ({ [5 x ptr] }, ptr @_ZTV18btTriangleCallback, i32 0, i32 0, i32 2), ptr %3, align 8, !tbaa !20
  ret void
}

; Function Attrs: mustprogress uwtable
define dso_local void @_ZN24btConvexTriangleCallbackC2EP12btDispatcherPK24btCollisionObjectWrapperS4_b(ptr noundef nonnull align 8 dereferenceable(96) %0, ptr noundef %1, ptr noundef %2, ptr noundef %3, i1 noundef zeroext %4) unnamed_addr #2 align 2 personality ptr @__gxx_personality_v0 {
  %6 = alloca ptr, align 8
  %7 = alloca ptr, align 8
  %8 = alloca ptr, align 8
  %9 = alloca ptr, align 8
  %10 = alloca i8, align 1
  %11 = alloca ptr, align 8
  %12 = alloca i32, align 4
  store ptr %0, ptr %6, align 8, !tbaa !49
  store ptr %1, ptr %7, align 8, !tbaa !51
  store ptr %2, ptr %8, align 8, !tbaa !16
  store ptr %3, ptr %9, align 8, !tbaa !16
  %13 = zext i1 %4 to i8
  store i8 %13, ptr %10, align 1, !tbaa !18
  %14 = load ptr, ptr %6, align 8
  call void @_ZN18btTriangleCallbackC2Ev(ptr noundef nonnull align 8 dereferenceable(8) %14) #14
  store ptr getelementptr inbounds inrange(-16, 24) ({ [5 x ptr] }, ptr @_ZTV24btConvexTriangleCallback, i32 0, i32 0, i32 2), ptr %14, align 8, !tbaa !20
  %15 = getelementptr inbounds nuw %class.btConvexTriangleCallback, ptr %14, i32 0, i32 1
  invoke void @_ZN9btVector3C2Ev(ptr noundef nonnull align 4 dereferenceable(16) %15)
          to label %16 unwind label %57

16:                                               ; preds = %5
  %17 = getelementptr inbounds nuw %class.btConvexTriangleCallback, ptr %14, i32 0, i32 2
  invoke void @_ZN9btVector3C2Ev(ptr noundef nonnull align 4 dereferenceable(16) %17)
          to label %18 unwind label %57

18:                                               ; preds = %16
  %19 = getelementptr inbounds nuw %class.btConvexTriangleCallback, ptr %14, i32 0, i32 6
  %20 = load ptr, ptr %7, align 8, !tbaa !51
  store ptr %20, ptr %19, align 8, !tbaa !52
  %21 = getelementptr inbounds nuw %class.btConvexTriangleCallback, ptr %14, i32 0, i32 7
  store ptr null, ptr %21, align 8, !tbaa !53
  %22 = load i8, ptr %10, align 1, !tbaa !18, !range !26, !noundef !27
  %23 = trunc i8 %22 to i1
  br i1 %23, label %24, label %26

24:                                               ; preds = %18
  %25 = load ptr, ptr %9, align 8, !tbaa !16
  br label %28

26:                                               ; preds = %18
  %27 = load ptr, ptr %8, align 8, !tbaa !16
  br label %28

28:                                               ; preds = %26, %24
  %29 = phi ptr [ %25, %24 ], [ %27, %26 ]
  %30 = getelementptr inbounds nuw %class.btConvexTriangleCallback, ptr %14, i32 0, i32 3
  store ptr %29, ptr %30, align 8, !tbaa !54
  %31 = load i8, ptr %10, align 1, !tbaa !18, !range !26, !noundef !27
  %32 = trunc i8 %31 to i1
  br i1 %32, label %33, label %35

33:                                               ; preds = %28
  %34 = load ptr, ptr %8, align 8, !tbaa !16
  br label %37

35:                                               ; preds = %28
  %36 = load ptr, ptr %9, align 8, !tbaa !16
  br label %37

37:                                               ; preds = %35, %33
  %38 = phi ptr [ %34, %33 ], [ %36, %35 ]
  %39 = getelementptr inbounds nuw %class.btConvexTriangleCallback, ptr %14, i32 0, i32 4
  store ptr %38, ptr %39, align 8, !tbaa !55
  %40 = getelementptr inbounds nuw %class.btConvexTriangleCallback, ptr %14, i32 0, i32 6
  %41 = load ptr, ptr %40, align 8, !tbaa !52
  %42 = getelementptr inbounds nuw %class.btConvexTriangleCallback, ptr %14, i32 0, i32 3
  %43 = load ptr, ptr %42, align 8, !tbaa !54
  %44 = invoke noundef ptr @_ZNK24btCollisionObjectWrapper18getCollisionObjectEv(ptr noundef nonnull align 8 dereferenceable(48) %43)
          to label %45 unwind label %57

45:                                               ; preds = %37
  %46 = getelementptr inbounds nuw %class.btConvexTriangleCallback, ptr %14, i32 0, i32 4
  %47 = load ptr, ptr %46, align 8, !tbaa !55
  %48 = invoke noundef ptr @_ZNK24btCollisionObjectWrapper18getCollisionObjectEv(ptr noundef nonnull align 8 dereferenceable(48) %47)
          to label %49 unwind label %57

49:                                               ; preds = %45
  %50 = load ptr, ptr %41, align 8, !tbaa !20
  %51 = getelementptr inbounds ptr, ptr %50, i64 3
  %52 = load ptr, ptr %51, align 8
  %53 = invoke noundef ptr %52(ptr noundef nonnull align 8 dereferenceable(8) %41, ptr noundef %44, ptr noundef %48)
          to label %54 unwind label %57

54:                                               ; preds = %49
  %55 = getelementptr inbounds nuw %class.btConvexTriangleCallback, ptr %14, i32 0, i32 10
  store ptr %53, ptr %55, align 8, !tbaa !56
  invoke void @_ZN24btConvexTriangleCallback10clearCacheEv(ptr noundef nonnull align 8 dereferenceable(96) %14)
          to label %56 unwind label %57

56:                                               ; preds = %54
  ret void

57:                                               ; preds = %54, %49, %45, %37, %16, %5
  %58 = landingpad { ptr, i32 }
          cleanup
  %59 = extractvalue { ptr, i32 } %58, 0
  store ptr %59, ptr %11, align 8
  %60 = extractvalue { ptr, i32 } %58, 1
  store i32 %60, ptr %12, align 4
  call void @_ZN18btTriangleCallbackD2Ev(ptr noundef nonnull align 8 dereferenceable(8) %14) #14
  br label %61

61:                                               ; preds = %57
  %62 = load ptr, ptr %11, align 8
  %63 = load i32, ptr %12, align 4
  %64 = insertvalue { ptr, i32 } poison, ptr %62, 0
  %65 = insertvalue { ptr, i32 } %64, i32 %63, 1
  resume { ptr, i32 } %65
}