; Function Attrs: mustprogress uwtable
define dso_local void @_ZN24btConvexTriangleCallbackC2EP12btDispatcherPK24btCollisionObjectWrapperS4_b(ptr noundef nonnull align 8 dereferenceable(96) initializes((0, 8), (40, 56), (64, 80)) %0, ptr noundef %1, ptr noundef %2, ptr noundef %3, i1 noundef zeroext %4) unnamed_addr #0 align 2 personality ptr @__gxx_personality_v0 {
  store ptr getelementptr inbounds nuw inrange(-16, 24) (i8, ptr @_ZTV24btConvexTriangleCallback, i64 16), ptr %0, align 8, !tbaa !4
  %6 = getelementptr inbounds nuw i8, ptr %0, i64 64
  store ptr %1, ptr %6, align 8, !tbaa !13
  %7 = getelementptr inbounds nuw i8, ptr %0, i64 72
  store ptr null, ptr %7, align 8, !tbaa !22
  %8 = select i1 %4, ptr %3, ptr %2
  %9 = getelementptr inbounds nuw i8, ptr %0, i64 40
  store ptr %8, ptr %9, align 8, !tbaa !23
  %10 = select i1 %4, ptr %2, ptr %3
  %11 = getelementptr inbounds nuw i8, ptr %0, i64 48
  store ptr %10, ptr %11, align 8, !tbaa !24
  %12 = getelementptr inbounds nuw i8, ptr %8, i64 16
  %13 = load ptr, ptr %12, align 8, !tbaa !25
  %14 = getelementptr inbounds nuw i8, ptr %10, i64 16
  %15 = load ptr, ptr %14, align 8, !tbaa !25
  %16 = load ptr, ptr %1, align 8, !tbaa !4
  %17 = getelementptr inbounds nuw i8, ptr %16, i64 24
  %18 = load ptr, ptr %17, align 8
  %19 = invoke noundef ptr %18(ptr noundef nonnull align 8 dereferenceable(8) %1, ptr noundef %13, ptr noundef %15)
          to label %20 unwind label %26

20:                                               ; preds = %5
  %21 = getelementptr inbounds nuw i8, ptr %0, i64 88
  store ptr %19, ptr %21, align 8, !tbaa !30
  %22 = load ptr, ptr %6, align 8, !tbaa !13
  %23 = load ptr, ptr %22, align 8, !tbaa !4
  %24 = getelementptr inbounds nuw i8, ptr %23, i64 40
  %25 = load ptr, ptr %24, align 8
  invoke void %25(ptr noundef nonnull align 8 dereferenceable(8) %22, ptr noundef %19)
          to label %_ZN24btConvexTriangleCallback10clearCacheEv.exit unwind label %26

_ZN24btConvexTriangleCallback10clearCacheEv.exit: ; preds = %20
  ret void

26:                                               ; preds = %20, %5
  %27 = landingpad { ptr, i32 }
          cleanup
  tail call void @_ZN18btTriangleCallbackD2Ev(ptr noundef nonnull align 8 dereferenceable(8) %0) #15
  resume { ptr, i32 } %27
}